; Function Attrs: nounwind uwtable
define noalias nonnull ptr @l_Lake_buildCycleError___at_Lake_recFetchWithIndex___spec__6___rarg(ptr noundef %0, ptr readnone captures(none) %1, ptr readnone captures(none) %2, ptr readnone captures(none) %3, ptr noundef %4, ptr noundef %5) local_unnamed_addr #1 {
  %7 = tail call ptr @l_Lake_formatCycle___at_Lake_instMonadCycleOfBuildKeyRecBuildTOfMonadOfMonadError___spec__2(ptr noundef %0) #5
  %8 = load ptr, ptr @l_Lake_buildCycleError___at_Lake_recFetchWithIndex___spec__6___rarg___closed__1, align 8, !tbaa !4
  %9 = tail call ptr @lean_string_append(ptr noundef %8, ptr noundef %7) #5
  %10 = ptrtoint ptr %7 to i64
  %11 = and i64 %10, 1
  %.not = icmp eq i64 %11, 0
  br i1 %.not, label %12, label %lean_dec.exit

12:                                               ; preds = %6
  %13 = load i32, ptr %7, align 4, !tbaa !8
  %14 = icmp sgt i32 %13, 1
  br i1 %14, label %15, label %17, !prof !11

15:                                               ; preds = %12
  %16 = add nsw i32 %13, -1
  store i32 %16, ptr %7, align 4, !tbaa !8
  br label %lean_dec.exit

17:                                               ; preds = %12
  %.not.i = icmp eq i32 %13, 0
  br i1 %.not.i, label %lean_dec.exit, label %18

18:                                               ; preds = %17
  tail call void @lean_dec_ref_cold(ptr noundef nonnull %7) #5
  br label %lean_dec.exit

lean_dec.exit:                                    ; preds = %18, %17, %15, %6
  %19 = load ptr, ptr @l_Lake_recBuildWithIndex___closed__7, align 8, !tbaa !4
  %20 = tail call ptr @lean_string_append(ptr noundef %9, ptr noundef %19) #5
  tail call void @lean_inc_heartbeat() #5
  %21 = tail call noalias ptr @mi_malloc_small(i64 noundef 24) #5
  %22 = icmp eq ptr %21, null
  br i1 %22, label %23, label %lean_alloc_ctor.exit

23:                                               ; preds = %lean_dec.exit
  tail call void @lean_internal_panic_out_of_memory() #6
  unreachable

lean_alloc_ctor.exit:                             ; preds = %lean_dec.exit
  %24 = getelementptr inbounds nuw i8, ptr %21, i64 4
  %25 = getelementptr inbounds nuw i8, ptr %21, i64 16
  store i64 3, ptr %25, align 8, !tbaa !12
  store i32 1, ptr %21, align 4, !tbaa !8
  store i32 65560, ptr %24, align 4
  %26 = getelementptr inbounds nuw i8, ptr %21, i64 8
  store ptr %20, ptr %26, align 8, !tbaa !4
  %27 = getelementptr i8, ptr %4, i64 8
  %.val = load i64, ptr %27, align 8, !tbaa !12
  %28 = tail call ptr @lean_array_push(ptr noundef %4, ptr noundef nonnull %21) #5
  tail call void @lean_inc_heartbeat() #5
  %29 = tail call noalias ptr @mi_malloc_small(i64 noundef 24) #5
  %30 = icmp eq ptr %29, null
  br i1 %30, label %31, label %lean_alloc_ctor.exit21

31:                                               ; preds = %lean_alloc_ctor.exit
  tail call void @lean_internal_panic_out_of_memory() #6
  unreachable

lean_alloc_ctor.exit21:                           ; preds = %lean_alloc_ctor.exit
  %32 = shl i64 %.val, 1
  %33 = or disjoint i64 %32, 1
  %34 = inttoptr i64 %33 to ptr
  %35 = getelementptr inbounds nuw i8, ptr %29, i64 4
  store i32 1, ptr %29, align 4, !tbaa !8
  store i32 16908312, ptr %35, align 4
  %36 = getelementptr inbounds nuw i8, ptr %29, i64 8
  store ptr %34, ptr %36, align 8, !tbaa !4
  %37 = getelementptr inbounds nuw i8, ptr %29, i64 16
  store ptr %28, ptr %37, align 8, !tbaa !4
  tail call void @lean_inc_heartbeat() #5
  %38 = tail call noalias ptr @mi_malloc_small(i64 noundef 24) #5
  %39 = icmp eq ptr %38, null
  br i1 %39, label %40, label %lean_alloc_ctor.exit22

40:                                               ; preds = %lean_alloc_ctor.exit21
  tail call void @lean_internal_panic_out_of_memory() #6
  unreachable

lean_alloc_ctor.exit22:                           ; preds = %lean_alloc_ctor.exit21
  %41 = getelementptr inbounds nuw i8, ptr %38, i64 4
  store i32 1, ptr %38, align 4, !tbaa !8
  store i32 131096, ptr %41, align 4
  %42 = getelementptr inbounds nuw i8, ptr %38, i64 8
  store ptr %29, ptr %42, align 8, !tbaa !4
  %43 = getelementptr inbounds nuw i8, ptr %38, i64 16
  store ptr %5, ptr %43, align 8, !tbaa !4
  ret ptr %38
}